#include <math.h>
#include <stdio.h>
#include <stdlib.h>
#include <string.h>


int main()
{
	int k,n[100];
	double in[100][100]={0.0},a=0.0,s=0.0;
	scanf("%d",&k);
	for(int i=0;i<k;i++) 
	{
		scanf("%d",&n[i]);
		for(int j=0;j<n[i];j++)
		{
			scanf("%lf",&in[i][j]);
			a+=in[i][j];
		}
		a=a/n[i];
		for(int jj=0;jj<n[i];jj++)
		{
			s+=(in[i][jj]-a)*(in[i][jj]-a);
		}
		s=s/n[i];
		s=sqrt(s);
		printf("%.5lf\n",s);
		a=0.0;
		s=0.0;
	}
	return 0;
}