; ModuleID = '38/1692.c'
source_filename = "38/1692.c"
target datalayout = "e-m:e-p270:32:32-p271:32:32-p272:64:64-i64:64-f80:128-n8:16:32:64-S128"
target triple = "x86_64-pc-linux-gnu"

@.str = private unnamed_addr constant [3 x i8] c"%d\00", align 1
@.str.1 = private unnamed_addr constant [4 x i8] c"%lf\00", align 1
@.str.2 = private unnamed_addr constant [7 x i8] c"%.5lf\0A\00", align 1

; Function Attrs: noinline nounwind uwtable
define dso_local i32 @main() #0 {
  %1 = alloca i32, align 4
  %2 = alloca i32, align 4
  %3 = alloca [100 x i32], align 16
  %4 = alloca [100 x [100 x double]], align 16
  %5 = alloca double, align 8
  %6 = alloca double, align 8
  %7 = alloca i32, align 4
  %8 = alloca i32, align 4
  %9 = alloca i32, align 4
  store i32 0, i32* %1, align 4
  %10 = bitcast [100 x [100 x double]]* %4 to i8*
  call void @llvm.memset.p0i8.i64(i8* align 16 %10, i8 0, i64 80000, i1 false)
  store double 0.000000e+00, double* %5, align 8
  store double 0.000000e+00, double* %6, align 8
  %11 = call i32 (i8*, ...) @__isoc99_scanf(i8* getelementptr inbounds ([3 x i8], [3 x i8]* @.str, i64 0, i64 0), i32* %2)
  store i32 0, i32* %7, align 4
  br label %12

12:                                               ; preds = %100, %0
  %13 = load i32, i32* %7, align 4
  %14 = load i32, i32* %2, align 4
  %15 = icmp slt i32 %13, %14
  br i1 %15, label %16, label %103

16:                                               ; preds = %12
  %17 = load i32, i32* %7, align 4
  %18 = sext i32 %17 to i64
  %19 = getelementptr inbounds [100 x i32], [100 x i32]* %3, i64 0, i64 %18
  %20 = call i32 (i8*, ...) @__isoc99_scanf(i8* getelementptr inbounds ([3 x i8], [3 x i8]* @.str, i64 0, i64 0), i32* %19)
  store i32 0, i32* %8, align 4
  br label %21

21:                                               ; preds = %45, %16
  %22 = load i32, i32* %8, align 4
  %23 = load i32, i32* %7, align 4
  %24 = sext i32 %23 to i64
  %25 = getelementptr inbounds [100 x i32], [100 x i32]* %3, i64 0, i64 %24
  %26 = load i32, i32* %25, align 4
  %27 = icmp slt i32 %22, %26
  br i1 %27, label %28, label %48

28:                                               ; preds = %21
  %29 = load i32, i32* %7, align 4
  %30 = sext i32 %29 to i64
  %31 = getelementptr inbounds [100 x [100 x double]], [100 x [100 x double]]* %4, i64 0, i64 %30
  %32 = load i32, i32* %8, align 4
  %33 = sext i32 %32 to i64
  %34 = getelementptr inbounds [100 x double], [100 x double]* %31, i64 0, i64 %33
  %35 = call i32 (i8*, ...) @__isoc99_scanf(i8* getelementptr inbounds ([4 x i8], [4 x i8]* @.str.1, i64 0, i64 0), double* %34)
  %36 = load i32, i32* %7, align 4
  %37 = sext i32 %36 to i64
  %38 = getelementptr inbounds [100 x [100 x double]], [100 x [100 x double]]* %4, i64 0, i64 %37
  %39 = load i32, i32* %8, align 4
  %40 = sext i32 %39 to i64
  %41 = getelementptr inbounds [100 x double], [100 x double]* %38, i64 0, i64 %40
  %42 = load double, double* %41, align 8
  %43 = load double, double* %5, align 8
  %44 = fadd double %43, %42
  store double %44, double* %5, align 8
  br label %45

45:                                               ; preds = %28
  %46 = load i32, i32* %8, align 4
  %47 = add nsw i32 %46, 1
  store i32 %47, i32* %8, align 4
  br label %21

48:                                               ; preds = %21
  %49 = load double, double* %5, align 8
  %50 = load i32, i32* %7, align 4
  %51 = sext i32 %50 to i64
  %52 = getelementptr inbounds [100 x i32], [100 x i32]* %3, i64 0, i64 %51
  %53 = load i32, i32* %52, align 4
  %54 = sitofp i32 %53 to double
  %55 = fdiv double %49, %54
  store double %55, double* %5, align 8
  store i32 0, i32* %9, align 4
  br label %56

56:                                               ; preds = %85, %48
  %57 = load i32, i32* %9, align 4
  %58 = load i32, i32* %7, align 4
  %59 = sext i32 %58 to i64
  %60 = getelementptr inbounds [100 x i32], [100 x i32]* %3, i64 0, i64 %59
  %61 = load i32, i32* %60, align 4
  %62 = icmp slt i32 %57, %61
  br i1 %62, label %63, label %88

63:                                               ; preds = %56
  %64 = load i32, i32* %7, align 4
  %65 = sext i32 %64 to i64
  %66 = getelementptr inbounds [100 x [100 x double]], [100 x [100 x double]]* %4, i64 0, i64 %65
  %67 = load i32, i32* %9, align 4
  %68 = sext i32 %67 to i64
  %69 = getelementptr inbounds [100 x double], [100 x double]* %66, i64 0, i64 %68
  %70 = load double, double* %69, align 8
  %71 = load double, double* %5, align 8
  %72 = fsub double %70, %71
  %73 = load i32, i32* %7, align 4
  %74 = sext i32 %73 to i64
  %75 = getelementptr inbounds [100 x [100 x double]], [100 x [100 x double]]* %4, i64 0, i64 %74
  %76 = load i32, i32* %9, align 4
  %77 = sext i32 %76 to i64
  %78 = getelementptr inbounds [100 x double], [100 x double]* %75, i64 0, i64 %77
  %79 = load double, double* %78, align 8
  %80 = load double, double* %5, align 8
  %81 = fsub double %79, %80
  %82 = fmul double %72, %81
  %83 = load double, double* %6, align 8
  %84 = fadd double %83, %82
  store double %84, double* %6, align 8
  br label %85

85:                                               ; preds = %63
  %86 = load i32, i32* %9, align 4
  %87 = add nsw i32 %86, 1
  store i32 %87, i32* %9, align 4
  br label %56

88:                                               ; preds = %56
  %89 = load double, double* %6, align 8
  %90 = load i32, i32* %7, align 4
  %91 = sext i32 %90 to i64
  %92 = getelementptr inbounds [100 x i32], [100 x i32]* %3, i64 0, i64 %91
  %93 = load i32, i32* %92, align 4
  %94 = sitofp i32 %93 to double
  %95 = fdiv double %89, %94
  store double %95, double* %6, align 8
  %96 = load double, double* %6, align 8
  %97 = call double @sqrt(double %96) #4
  store double %97, double* %6, align 8
  %98 = load double, double* %6, align 8
  %99 = call i32 (i8*, ...) @printf(i8* getelementptr inbounds ([7 x i8], [7 x i8]* @.str.2, i64 0, i64 0), double %98)
  store double 0.000000e+00, double* %5, align 8
  store double 0.000000e+00, double* %6, align 8
  br label %100

100:                                              ; preds = %88
  %101 = load i32, i32* %7, align 4
  %102 = add nsw i32 %101, 1
  store i32 %102, i32* %7, align 4
  br label %12

103:                                              ; preds = %12
  ret i32 0
}

; Function Attrs: argmemonly nounwind willreturn
declare void @llvm.memset.p0i8.i64(i8* nocapture writeonly, i8, i64, i1 immarg) #1

declare dso_local i32 @__isoc99_scanf(i8*, ...) #2

; Function Attrs: nounwind
declare dso_local double @sqrt(double) #3

declare dso_local i32 @printf(i8*, ...) #2


!llvm.module.flags = !{!0}
!llvm.ident = !{!1}

!0 = !{i32 1, !"wchar_size", i32 4}
!1 = !{!"clang version 10.0.0-4ubuntu1 "}
